target datalayout = "e-m:e-p270:32:32-p271:32:32-p272:64:64-i64:64-i128:128-f80:128-n8:16:32:64-S128"
target triple = "x86_64-pc-linux-gnu"

%"class.pxrInternal_v0_24__pxrReserved__::SdfPathExpression::ExpressionReference" = type { %"class.pxrInternal_v0_24__pxrReserved__::SdfPath", %"class.std::__cxx11::basic_string" }
%"class.pxrInternal_v0_24__pxrReserved__::SdfPath" = type { %"struct.pxrInternal_v0_24__pxrReserved__::Sdf_PathNodeHandleImpl", %"struct.pxrInternal_v0_24__pxrReserved__::Sdf_PathNodeHandleImpl.0" }
%"struct.pxrInternal_v0_24__pxrReserved__::Sdf_PathNodeHandleImpl" = type { %"struct.pxrInternal_v0_24__pxrReserved__::Sdf_Pool<pxrInternal_v0_24__pxrReserved__::Sdf_PathPrimTag, 24, 8>::Handle" }
%"struct.pxrInternal_v0_24__pxrReserved__::Sdf_Pool<pxrInternal_v0_24__pxrReserved__::Sdf_PathPrimTag, 24, 8>::Handle" = type { i32 }
%"struct.pxrInternal_v0_24__pxrReserved__::Sdf_PathNodeHandleImpl.0" = type { %"struct.pxrInternal_v0_24__pxrReserved__::Sdf_Pool<pxrInternal_v0_24__pxrReserved__::Sdf_PathPropTag, 24, 8>::Handle" }
%"struct.pxrInternal_v0_24__pxrReserved__::Sdf_Pool<pxrInternal_v0_24__pxrReserved__::Sdf_PathPropTag, 24, 8>::Handle" = type { i32 }
%"class.std::__cxx11::basic_string" = type { %"struct.std::__cxx11::basic_string<char>::_Alloc_hider", i64, %union.anon }
%"struct.std::__cxx11::basic_string<char>::_Alloc_hider" = type { ptr }
%union.anon = type { i64, [8 x i8] }
%"class.pxrInternal_v0_24__pxrReserved__::SdfPathExpression" = type { %"class.std::vector", %"class.std::vector.4", %"class.std::vector.9", %"class.std::__cxx11::basic_string" }
%"class.std::vector" = type { %"struct.std::_Vector_base" }
%"struct.std::_Vector_base" = type { %"struct.std::_Vector_base<pxrInternal_v0_24__pxrReserved__::SdfPathExpression::Op, std::allocator<pxrInternal_v0_24__pxrReserved__::SdfPathExpression::Op>>::_Vector_impl" }
%"struct.std::_Vector_base<pxrInternal_v0_24__pxrReserved__::SdfPathExpression::Op, std::allocator<pxrInternal_v0_24__pxrReserved__::SdfPathExpression::Op>>::_Vector_impl" = type { %"struct.std::_Vector_base<pxrInternal_v0_24__pxrReserved__::SdfPathExpression::Op, std::allocator<pxrInternal_v0_24__pxrReserved__::SdfPathExpression::Op>>::_Vector_impl_data" }
%"struct.std::_Vector_base<pxrInternal_v0_24__pxrReserved__::SdfPathExpression::Op, std::allocator<pxrInternal_v0_24__pxrReserved__::SdfPathExpression::Op>>::_Vector_impl_data" = type { ptr, ptr, ptr }
%"class.std::vector.4" = type { %"struct.std::_Vector_base.5" }
%"struct.std::_Vector_base.5" = type { %"struct.std::_Vector_base<pxrInternal_v0_24__pxrReserved__::SdfPathExpression::ExpressionReference, std::allocator<pxrInternal_v0_24__pxrReserved__::SdfPathExpression::ExpressionReference>>::_Vector_impl" }
%"struct.std::_Vector_base<pxrInternal_v0_24__pxrReserved__::SdfPathExpression::ExpressionReference, std::allocator<pxrInternal_v0_24__pxrReserved__::SdfPathExpression::ExpressionReference>>::_Vector_impl" = type { %"struct.std::_Vector_base<pxrInternal_v0_24__pxrReserved__::SdfPathExpression::ExpressionReference, std::allocator<pxrInternal_v0_24__pxrReserved__::SdfPathExpression::ExpressionReference>>::_Vector_impl_data" }
%"struct.std::_Vector_base<pxrInternal_v0_24__pxrReserved__::SdfPathExpression::ExpressionReference, std::allocator<pxrInternal_v0_24__pxrReserved__::SdfPathExpression::ExpressionReference>>::_Vector_impl_data" = type { ptr, ptr, ptr }
%"class.std::vector.9" = type { %"struct.std::_Vector_base.10" }
%"struct.std::_Vector_base.10" = type { %"struct.std::_Vector_base<pxrInternal_v0_24__pxrReserved__::SdfPathPattern, std::allocator<pxrInternal_v0_24__pxrReserved__::SdfPathPattern>>::_Vector_impl" }
%"struct.std::_Vector_base<pxrInternal_v0_24__pxrReserved__::SdfPathPattern, std::allocator<pxrInternal_v0_24__pxrReserved__::SdfPathPattern>>::_Vector_impl" = type { %"struct.std::_Vector_base<pxrInternal_v0_24__pxrReserved__::SdfPathPattern, std::allocator<pxrInternal_v0_24__pxrReserved__::SdfPathPattern>>::_Vector_impl_data" }
%"struct.std::_Vector_base<pxrInternal_v0_24__pxrReserved__::SdfPathPattern, std::allocator<pxrInternal_v0_24__pxrReserved__::SdfPathPattern>>::_Vector_impl_data" = type { ptr, ptr, ptr }
%class.anon.47 = type { ptr }

@.str.4 = private unnamed_addr constant [2 x i8] c"_\00", align 1

; Function Attrs: mustprogress nounwind uwtable
define linkonce_odr noundef zeroext i1 @_ZSteqIcSt11char_traitsIcESaIcEEbRKNSt7__cxx1112basic_stringIT_T0_T1_EEPKS5_(ptr noundef nonnull align 8 dereferenceable(32) %0, ptr noundef %1) #2 comdat {
  %3 = alloca ptr, align 8
  %4 = alloca ptr, align 8
  store ptr %0, ptr %3, align 8
  store ptr %1, ptr %4, align 8
  %5 = load ptr, ptr %3, align 8
  %6 = load ptr, ptr %4, align 8
  %7 = call noundef i32 @_ZNKSt7__cxx1112basic_stringIcSt11char_traitsIcESaIcEE7compareEPKc(ptr noundef nonnull align 8 dereferenceable(32) %5, ptr noundef %6) #3
  %8 = icmp eq i32 %7, 0
  ret i1 %8
}

; Function Attrs: mustprogress uwtable
define internal void @"_ZZNO32pxrInternal_v0_24__pxrReserved__17SdfPathExpression11ComposeOverERKS0_ENK3$_0clERKNS0_19ExpressionReferenceE"(ptr dead_on_unwind noalias writable sret(%"class.pxrInternal_v0_24__pxrReserved__::SdfPathExpression") align 8 %0, ptr noundef nonnull align 8 dereferenceable(8) %1, ptr noundef nonnull align 8 dereferenceable(40) %2) #0 align 2 {
  %4 = alloca ptr, align 8
  %5 = alloca ptr, align 8
  %6 = alloca ptr, align 8
  store ptr %0, ptr %4, align 8
  store ptr %1, ptr %5, align 8
  store ptr %2, ptr %6, align 8
  %7 = load ptr, ptr %5, align 8
  %8 = load ptr, ptr %6, align 8
  %9 = getelementptr inbounds nuw %"class.pxrInternal_v0_24__pxrReserved__::SdfPathExpression::ExpressionReference", ptr %8, i32 0, i32 1
  %10 = call noundef zeroext i1 @_ZSteqIcSt11char_traitsIcESaIcEEbRKNSt7__cxx1112basic_stringIT_T0_T1_EEPKS5_(ptr noundef nonnull align 8 dereferenceable(32) %9, ptr noundef @.str.4)
  br i1 %10, label %11, label %14

11:                                               ; preds = %3
  %12 = getelementptr inbounds nuw %class.anon.47, ptr %7, i32 0, i32 0
  %13 = load ptr, ptr %12, align 8
  call void @_ZN32pxrInternal_v0_24__pxrReserved__17SdfPathExpressionC2ERKS0_(ptr noundef nonnull align 8 dereferenceable(104) %0, ptr noundef nonnull align 8 dereferenceable(104) %13)
  br label %16

14:                                               ; preds = %3
  %15 = load ptr, ptr %6, align 8
  call void @_ZN32pxrInternal_v0_24__pxrReserved__17SdfPathExpression8MakeAtomERKNS0_19ExpressionReferenceE(ptr dead_on_unwind writable sret(%"class.pxrInternal_v0_24__pxrReserved__::SdfPathExpression") align 8 %0, ptr noundef nonnull align 8 dereferenceable(40) %15)
  br label %16

16:                                               ; preds = %14, %11
  ret void
}

; Function Attrs: mustprogress uwtable
define internal void @"_ZN32pxrInternal_v0_24__pxrReserved__13TfFunctionRefIFNS_17SdfPathExpressionERKNS1_19ExpressionReferenceEEE9_InvokeFnIZNOS1_11ComposeOverERKS1_E3$_0EES1_PKvS4_"(ptr dead_on_unwind noalias writable sret(%"class.pxrInternal_v0_24__pxrReserved__::SdfPathExpression") align 8 %0, ptr noundef %1, ptr noundef nonnull align 8 dereferenceable(40) %2) #0 align 2 {
  %4 = alloca ptr, align 8
  %5 = alloca ptr, align 8
  %6 = alloca ptr, align 8
  store ptr %0, ptr %4, align 8
  store ptr %1, ptr %5, align 8
  store ptr %2, ptr %6, align 8
  %7 = load ptr, ptr %5, align 8
  %8 = load ptr, ptr %6, align 8
  call void @"_ZZNO32pxrInternal_v0_24__pxrReserved__17SdfPathExpression11ComposeOverERKS0_ENK3$_0clERKNS0_19ExpressionReferenceE"(ptr dead_on_unwind writable sret(%"class.pxrInternal_v0_24__pxrReserved__::SdfPathExpression") align 8 %0, ptr noundef nonnull align 8 dereferenceable(8) %7, ptr noundef nonnull align 8 dereferenceable(40) %8)
  ret void
}