; Function Attrs: mustprogress uwtable
define internal void @"_ZN32pxrInternal_v0_24__pxrReserved__13TfFunctionRefIFNS_17SdfPathExpressionERKNS1_19ExpressionReferenceEEE9_InvokeFnIZNOS1_11ComposeOverERKS1_E3$_0EES1_PKvS4_"(ptr dead_on_unwind noalias writable sret(%"class.pxrInternal_v0_24__pxrReserved__::SdfPathExpression") align 8 %0, ptr nocapture noundef readonly %1, ptr noundef nonnull align 8 dereferenceable(40) %2) #0 align 2 {
  %4 = getelementptr inbounds nuw i8, ptr %2, i64 8
  %5 = tail call noundef i32 @_ZNKSt7__cxx1112basic_stringIcSt11char_traitsIcESaIcEE7compareEPKc(ptr noundef nonnull align 8 dereferenceable(32) %4, ptr noundef nonnull @.str.4) #24, !noalias !165
  %6 = icmp eq i32 %5, 0
  br i1 %6, label %7, label %9

7:                                                ; preds = %3
  %8 = load ptr, ptr %1, align 8, !noalias !165
  tail call void @_ZN32pxrInternal_v0_24__pxrReserved__17SdfPathExpressionC2ERKS0_(ptr noundef nonnull align 8 dereferenceable(104) %0, ptr noundef nonnull align 8 dereferenceable(104) %8)
  br label %"_ZZNO32pxrInternal_v0_24__pxrReserved__17SdfPathExpression11ComposeOverERKS0_ENK3$_0clERKNS0_19ExpressionReferenceE.exit"

9:                                                ; preds = %3
  tail call void @_ZN32pxrInternal_v0_24__pxrReserved__17SdfPathExpression8MakeAtomERKNS0_19ExpressionReferenceE(ptr dead_on_unwind writable sret(%"class.pxrInternal_v0_24__pxrReserved__::SdfPathExpression") align 8 %0, ptr noundef nonnull align 8 dereferenceable(40) %2)
  br label %"_ZZNO32pxrInternal_v0_24__pxrReserved__17SdfPathExpression11ComposeOverERKS0_ENK3$_0clERKNS0_19ExpressionReferenceE.exit"

"_ZZNO32pxrInternal_v0_24__pxrReserved__17SdfPathExpression11ComposeOverERKS0_ENK3$_0clERKNS0_19ExpressionReferenceE.exit": ; preds = %7, %9
  ret void
}